target datalayout = "e-m:e-p270:32:32-p271:32:32-p272:64:64-i64:64-i128:128-f80:128-n8:16:32:64-S128"
target triple = "x86_64-pc-linux-gnu"

%struct.AVFilterContext = type { ptr, ptr, ptr, ptr, ptr, i32, ptr, ptr, i32, ptr, ptr, i32, i32, ptr, ptr, ptr, ptr, i32, ptr, i32, i32 }
%struct.UnsharpContext = type { ptr, i32, i32, i32, i32, i32, i32, float, float, float, %struct.UnsharpFilterParam, %struct.UnsharpFilterParam, %struct.UnsharpFilterParam, i32, i32, i32, i32, i32, i32, ptr }
%struct.UnsharpFilterParam = type { i32, i32, i32, i32, i32, i32, i32, ptr, ptr }

@.str.5 = private unnamed_addr constant [5 x i8] c"none\00", align 1
@.str.6 = private unnamed_addr constant [5 x i8] c"blur\00", align 1
@.str.7 = private unnamed_addr constant [8 x i8] c"sharpen\00", align 1
@.str.8 = private unnamed_addr constant [44 x i8] c"Invalid even size for %s matrix size %dx%d\0A\00", align 1
@.str.9 = private unnamed_addr constant [54 x i8] c"effect:%s type:%s msize_x:%d msize_y:%d amount:%0.2f\0A\00", align 1

; Function Attrs: nounwind uwtable
define internal i32 @init_filter_param(ptr noundef %0, ptr noundef %1, ptr noundef %2, i32 noundef %3) #1 {
  %5 = alloca i32, align 4
  %6 = alloca ptr, align 8
  %7 = alloca ptr, align 8
  %8 = alloca ptr, align 8
  %9 = alloca i32, align 4
  %10 = alloca i32, align 4
  %11 = alloca ptr, align 8
  %12 = alloca ptr, align 8
  %13 = alloca i32, align 4
  store ptr %0, ptr %6, align 8, !tbaa !4
  store ptr %1, ptr %7, align 8, !tbaa !73
  store ptr %2, ptr %8, align 8, !tbaa !77
  store i32 %3, ptr %9, align 4, !tbaa !32
  call void @llvm.lifetime.start.p0(i64 4, ptr %10) #8
  call void @llvm.lifetime.start.p0(i64 8, ptr %11) #8
  %14 = load ptr, ptr %6, align 8, !tbaa !4
  %15 = getelementptr inbounds nuw %struct.AVFilterContext, ptr %14, i32 0, i32 9
  %16 = load ptr, ptr %15, align 8, !tbaa !9
  store ptr %16, ptr %11, align 8, !tbaa !22
  call void @llvm.lifetime.start.p0(i64 8, ptr %12) #8
  %17 = load ptr, ptr %7, align 8, !tbaa !73
  %18 = getelementptr inbounds nuw %struct.UnsharpFilterParam, ptr %17, i32 0, i32 2
  %19 = load i32, ptr %18, align 8, !tbaa !95
  %20 = icmp eq i32 %19, 0
  br i1 %20, label %21, label %22

21:                                               ; preds = %4
  br label %28

22:                                               ; preds = %4
  %23 = load ptr, ptr %7, align 8, !tbaa !73
  %24 = getelementptr inbounds nuw %struct.UnsharpFilterParam, ptr %23, i32 0, i32 2
  %25 = load i32, ptr %24, align 8, !tbaa !95
  %26 = icmp slt i32 %25, 0
  %27 = select i1 %26, ptr @.str.6, ptr @.str.7
  br label %28

28:                                               ; preds = %22, %21
  %29 = phi ptr [ @.str.5, %21 ], [ %27, %22 ]
  store ptr %29, ptr %12, align 8, !tbaa !77
  %30 = load ptr, ptr %7, align 8, !tbaa !73
  %31 = getelementptr inbounds nuw %struct.UnsharpFilterParam, ptr %30, i32 0, i32 0
  %32 = load i32, ptr %31, align 8, !tbaa !113
  %33 = load ptr, ptr %7, align 8, !tbaa !73
  %34 = getelementptr inbounds nuw %struct.UnsharpFilterParam, ptr %33, i32 0, i32 1
  %35 = load i32, ptr %34, align 4, !tbaa !114
  %36 = and i32 %32, %35
  %37 = and i32 %36, 1
  %38 = icmp ne i32 %37, 0
  br i1 %38, label %48, label %39

39:                                               ; preds = %28
  %40 = load ptr, ptr %6, align 8, !tbaa !4
  %41 = load ptr, ptr %8, align 8, !tbaa !77
  %42 = load ptr, ptr %7, align 8, !tbaa !73
  %43 = getelementptr inbounds nuw %struct.UnsharpFilterParam, ptr %42, i32 0, i32 0
  %44 = load i32, ptr %43, align 8, !tbaa !113
  %45 = load ptr, ptr %7, align 8, !tbaa !73
  %46 = getelementptr inbounds nuw %struct.UnsharpFilterParam, ptr %45, i32 0, i32 1
  %47 = load i32, ptr %46, align 4, !tbaa !114
  call void (ptr, i32, ptr, ...) @av_log(ptr noundef %40, i32 noundef 16, ptr noundef @.str.8, ptr noundef %41, i32 noundef %44, i32 noundef %47)
  store i32 -22, ptr %5, align 4
  store i32 1, ptr %13, align 4
  br label %126

48:                                               ; preds = %28
  %49 = load ptr, ptr %6, align 8, !tbaa !4
  %50 = load ptr, ptr %12, align 8, !tbaa !77
  %51 = load ptr, ptr %8, align 8, !tbaa !77
  %52 = load ptr, ptr %7, align 8, !tbaa !73
  %53 = getelementptr inbounds nuw %struct.UnsharpFilterParam, ptr %52, i32 0, i32 0
  %54 = load i32, ptr %53, align 8, !tbaa !113
  %55 = load ptr, ptr %7, align 8, !tbaa !73
  %56 = getelementptr inbounds nuw %struct.UnsharpFilterParam, ptr %55, i32 0, i32 1
  %57 = load i32, ptr %56, align 4, !tbaa !114
  %58 = load ptr, ptr %7, align 8, !tbaa !73
  %59 = getelementptr inbounds nuw %struct.UnsharpFilterParam, ptr %58, i32 0, i32 2
  %60 = load i32, ptr %59, align 8, !tbaa !95
  %61 = sitofp i32 %60 to double
  %62 = fdiv nsz double %61, 6.553500e+04
  call void (ptr, i32, ptr, ...) @av_log(ptr noundef %49, i32 noundef 40, ptr noundef @.str.9, ptr noundef %50, ptr noundef %51, i32 noundef %54, i32 noundef %57, double noundef %62)
  %63 = load ptr, ptr %11, align 8, !tbaa !22
  %64 = getelementptr inbounds nuw %struct.UnsharpContext, ptr %63, i32 0, i32 18
  %65 = load i32, ptr %64, align 4, !tbaa !39
  %66 = mul nsw i32 62, %65
  %67 = sext i32 %66 to i64
  %68 = call ptr @av_malloc_array(i64 noundef %67, i64 noundef 4)
  %69 = load ptr, ptr %7, align 8, !tbaa !73
  %70 = getelementptr inbounds nuw %struct.UnsharpFilterParam, ptr %69, i32 0, i32 7
  store ptr %68, ptr %70, align 8, !tbaa !91
  %71 = load ptr, ptr %7, align 8, !tbaa !73
  %72 = getelementptr inbounds nuw %struct.UnsharpFilterParam, ptr %71, i32 0, i32 4
  %73 = load i32, ptr %72, align 8, !tbaa !97
  %74 = load ptr, ptr %11, align 8, !tbaa !22
  %75 = getelementptr inbounds nuw %struct.UnsharpContext, ptr %74, i32 0, i32 18
  %76 = load i32, ptr %75, align 4, !tbaa !39
  %77 = mul nsw i32 %73, %76
  %78 = sext i32 %77 to i64
  %79 = call noalias ptr @av_calloc(i64 noundef %78, i64 noundef 16)
  %80 = load ptr, ptr %7, align 8, !tbaa !73
  %81 = getelementptr inbounds nuw %struct.UnsharpFilterParam, ptr %80, i32 0, i32 8
  store ptr %79, ptr %81, align 8, !tbaa !89
  %82 = load ptr, ptr %7, align 8, !tbaa !73
  %83 = getelementptr inbounds nuw %struct.UnsharpFilterParam, ptr %82, i32 0, i32 7
  %84 = load ptr, ptr %83, align 8, !tbaa !91
  %85 = icmp ne ptr %84, null
  br i1 %85, label %86, label %91

86:                                               ; preds = %48
  %87 = load ptr, ptr %7, align 8, !tbaa !73
  %88 = getelementptr inbounds nuw %struct.UnsharpFilterParam, ptr %87, i32 0, i32 8
  %89 = load ptr, ptr %88, align 8, !tbaa !89
  %90 = icmp ne ptr %89, null
  br i1 %90, label %92, label %91

91:                                               ; preds = %86, %48
  store i32 -12, ptr %5, align 4
  store i32 1, ptr %13, align 4
  br label %126

92:                                               ; preds = %86
  store i32 0, ptr %10, align 4, !tbaa !32
  br label %93

93:                                               ; preds = %122, %92
  %94 = load i32, ptr %10, align 4, !tbaa !32
  %95 = load ptr, ptr %7, align 8, !tbaa !73
  %96 = getelementptr inbounds nuw %struct.UnsharpFilterParam, ptr %95, i32 0, i32 4
  %97 = load i32, ptr %96, align 8, !tbaa !97
  %98 = mul nsw i32 2, %97
  %99 = load ptr, ptr %11, align 8, !tbaa !22
  %100 = getelementptr inbounds nuw %struct.UnsharpContext, ptr %99, i32 0, i32 18
  %101 = load i32, ptr %100, align 4, !tbaa !39
  %102 = mul nsw i32 %98, %101
  %103 = icmp slt i32 %94, %102
  br i1 %103, label %104, label %125

104:                                              ; preds = %93
  %105 = load i32, ptr %9, align 4, !tbaa !32
  %106 = load ptr, ptr %7, align 8, !tbaa !73
  %107 = getelementptr inbounds nuw %struct.UnsharpFilterParam, ptr %106, i32 0, i32 3
  %108 = load i32, ptr %107, align 4, !tbaa !96
  %109 = mul nsw i32 2, %108
  %110 = add nsw i32 %105, %109
  %111 = sext i32 %110 to i64
  %112 = call ptr @av_malloc_array(i64 noundef %111, i64 noundef 4)
  %113 = load ptr, ptr %7, align 8, !tbaa !73
  %114 = getelementptr inbounds nuw %struct.UnsharpFilterParam, ptr %113, i32 0, i32 8
  %115 = load ptr, ptr %114, align 8, !tbaa !89
  %116 = load i32, ptr %10, align 4, !tbaa !32
  %117 = sext i32 %116 to i64
  %118 = getelementptr inbounds ptr, ptr %115, i64 %117
  store ptr %112, ptr %118, align 8, !tbaa !92
  %119 = icmp ne ptr %112, null
  br i1 %119, label %121, label %120

120:                                              ; preds = %104
  store i32 -12, ptr %5, align 4
  store i32 1, ptr %13, align 4
  br label %126

121:                                              ; preds = %104
  br label %122

122:                                              ; preds = %121
  %123 = load i32, ptr %10, align 4, !tbaa !32
  %124 = add nsw i32 %123, 1
  store i32 %124, ptr %10, align 4, !tbaa !32
  br label %93, !llvm.loop !115

125:                                              ; preds = %93
  store i32 0, ptr %5, align 4
  store i32 1, ptr %13, align 4
  br label %126

126:                                              ; preds = %125, %120, %91, %39
  call void @llvm.lifetime.end.p0(i64 8, ptr %12) #8
  call void @llvm.lifetime.end.p0(i64 8, ptr %11) #8
  call void @llvm.lifetime.end.p0(i64 4, ptr %10) #8
  %127 = load i32, ptr %5, align 4
  ret i32 %127
}