; Function Attrs: nounwind uwtable
define internal fastcc range(i32 -22, 1) i32 @init_filter_param(ptr noundef %0, ptr noundef captures(none) %1, ptr noundef %2, i32 noundef %3) unnamed_addr #1 {
  %5 = load i32, ptr %1, align 8, !tbaa !102
  %6 = getelementptr inbounds nuw i8, ptr %1, i64 4
  %7 = load i32, ptr %6, align 4, !tbaa !103
  %8 = and i32 %5, 1
  %9 = and i32 %8, %7
  %.not = icmp eq i32 %9, 0
  br i1 %.not, label %10, label %11

10:                                               ; preds = %4
  tail call void (ptr, i32, ptr, ...) @av_log(ptr noundef nonnull %0, i32 noundef 16, ptr noundef nonnull @.str.8, ptr noundef %2, i32 noundef %5, i32 noundef %7) #7
  br label %.loopexit

11:                                               ; preds = %4
  %12 = getelementptr inbounds nuw i8, ptr %1, i64 8
  %13 = load i32, ptr %12, align 8, !tbaa !83
  %14 = icmp eq i32 %13, 0
  %15 = icmp slt i32 %13, 0
  %16 = select i1 %15, ptr @.str.6, ptr @.str.7
  %17 = select i1 %14, ptr @.str.5, ptr %16
  %18 = getelementptr inbounds nuw i8, ptr %0, i64 72
  %19 = load ptr, ptr %18, align 8, !tbaa !4
  %20 = sitofp i32 %13 to double
  %21 = fdiv nsz double %20, 6.553500e+04
  tail call void (ptr, i32, ptr, ...) @av_log(ptr noundef nonnull %0, i32 noundef 40, ptr noundef nonnull @.str.9, ptr noundef nonnull %17, ptr noundef %2, i32 noundef %5, i32 noundef %7, double noundef %21) #7
  %22 = getelementptr inbounds nuw i8, ptr %19, i64 212
  %23 = load i32, ptr %22, align 4, !tbaa !34
  %24 = mul nsw i32 %23, 62
  %25 = sext i32 %24 to i64
  %26 = tail call ptr @av_malloc_array(i64 noundef %25, i64 noundef 4) #7
  %27 = getelementptr inbounds nuw i8, ptr %1, i64 32
  store ptr %26, ptr %27, align 8, !tbaa !82
  %28 = getelementptr inbounds nuw i8, ptr %1, i64 16
  %29 = load i32, ptr %28, align 8, !tbaa !85
  %30 = load i32, ptr %22, align 4, !tbaa !34
  %31 = mul nsw i32 %30, %29
  %32 = sext i32 %31 to i64
  %33 = tail call noalias ptr @av_calloc(i64 noundef %32, i64 noundef 16) #7
  %34 = getelementptr inbounds nuw i8, ptr %1, i64 40
  store ptr %33, ptr %34, align 8, !tbaa !81
  %35 = load ptr, ptr %27, align 8, !tbaa !82
  %.not32 = icmp eq ptr %35, null
  %.not33 = icmp eq ptr %33, null
  %or.cond = select i1 %.not32, i1 true, i1 %.not33
  br i1 %or.cond, label %.loopexit, label %.preheader

.preheader:                                       ; preds = %11
  %36 = getelementptr inbounds nuw i8, ptr %1, i64 12
  %37 = load i32, ptr %28, align 8, !tbaa !85
  %38 = shl nsw i32 %37, 1
  %39 = load i32, ptr %22, align 4, !tbaa !34
  %40 = mul nsw i32 %38, %39
  %41 = icmp sgt i32 %40, 0
  br i1 %41, label %.lr.ph, label %.loopexit

42:                                               ; preds = %.lr.ph
  %indvars.iv.next = add nuw nsw i64 %indvars.iv, 1
  %43 = load i32, ptr %28, align 8, !tbaa !85
  %44 = shl nsw i32 %43, 1
  %45 = load i32, ptr %22, align 4, !tbaa !34
  %46 = mul nsw i32 %44, %45
  %47 = sext i32 %46 to i64
  %48 = icmp slt i64 %indvars.iv.next, %47
  br i1 %48, label %.lr.ph, label %.loopexit, !llvm.loop !104

.lr.ph:                                           ; preds = %.preheader, %42
  %indvars.iv = phi i64 [ %indvars.iv.next, %42 ], [ 0, %.preheader ]
  %49 = load i32, ptr %36, align 4, !tbaa !84
  %50 = shl nsw i32 %49, 1
  %51 = add nsw i32 %50, %3
  %52 = sext i32 %51 to i64
  %53 = tail call ptr @av_malloc_array(i64 noundef %52, i64 noundef 4) #7
  %54 = load ptr, ptr %34, align 8, !tbaa !81
  %55 = getelementptr inbounds nuw ptr, ptr %54, i64 %indvars.iv
  store ptr %53, ptr %55, align 8, !tbaa !88
  %.not34 = icmp eq ptr %53, null
  br i1 %.not34, label %.loopexit, label %42

.loopexit:                                        ; preds = %.lr.ph, %42, %.preheader, %11, %10
  %.0 = phi i32 [ -22, %10 ], [ -12, %11 ], [ 0, %.preheader ], [ -12, %.lr.ph ], [ 0, %42 ]
  ret i32 %.0
}